; ModuleID = '50/1952.cpp'
source_filename = "50/1952.cpp"
target datalayout = "e-m:e-p270:32:32-p271:32:32-p272:64:64-i64:64-f80:128-n8:16:32:64-S128"
target triple = "x86_64-pc-linux-gnu"

%"class.std::ios_base::Init" = type { i8 }
%"class.std::basic_istream" = type { i32 (...)**, i64, %"class.std::basic_ios" }
%"class.std::basic_ios" = type { %"class.std::ios_base", %"class.std::basic_ostream"*, i8, i8, %"class.std::basic_streambuf"*, %"class.std::ctype"*, %"class.std::num_put"*, %"class.std::num_get"* }
%"class.std::ios_base" = type { i32 (...)**, i64, i64, i32, i32, i32, %"struct.std::ios_base::_Callback_list"*, %"struct.std::ios_base::_Words", [8 x %"struct.std::ios_base::_Words"], i32, %"struct.std::ios_base::_Words"*, %"class.std::locale" }
%"struct.std::ios_base::_Callback_list" = type { %"struct.std::ios_base::_Callback_list"*, void (i32, %"class.std::ios_base"*, i32)*, i32, i32 }
%"struct.std::ios_base::_Words" = type { i8*, i64 }
%"class.std::locale" = type { %"class.std::locale::_Impl"* }
%"class.std::locale::_Impl" = type { i32, %"class.std::locale::facet"**, i64, %"class.std::locale::facet"**, i8** }
%"class.std::locale::facet" = type <{ i32 (...)**, i32, [4 x i8] }>
%"class.std::basic_ostream" = type { i32 (...)**, %"class.std::basic_ios" }
%"class.std::basic_streambuf" = type { i32 (...)**, i8*, i8*, i8*, i8*, i8*, i8*, %"class.std::locale" }
%"class.std::ctype" = type <{ %"class.std::locale::facet.base", [4 x i8], %struct.__locale_struct*, i8, [7 x i8], i32*, i32*, i16*, i8, [256 x i8], [256 x i8], i8, [6 x i8] }>
%"class.std::locale::facet.base" = type <{ i32 (...)**, i32 }>
%struct.__locale_struct = type { [13 x %struct.__locale_data*], i16*, i32*, i32*, [13 x i8*] }
%struct.__locale_data = type opaque
%"class.std::num_put" = type { %"class.std::locale::facet.base", [4 x i8] }
%"class.std::num_get" = type { %"class.std::locale::facet.base", [4 x i8] }

@_ZStL8__ioinit = internal global %"class.std::ios_base::Init" zeroinitializer, align 1
@__dso_handle = external hidden global i8
@_ZSt3cin = external dso_local global %"class.std::basic_istream", align 8
@_ZSt4cout = external dso_local global %"class.std::basic_ostream", align 8
@llvm.global_ctors = appending global [1 x { i32, void ()*, i8* }] [{ i32, void ()*, i8* } { i32 65535, void ()* @_GLOBAL__sub_I_1952.cpp, i8* null }]

; Function Attrs: noinline uwtable
define internal void @__cxx_global_var_init() #0 section ".text.startup" {
  call void @_ZNSt8ios_base4InitC1Ev(%"class.std::ios_base::Init"* @_ZStL8__ioinit)
  %1 = call i32 @__cxa_atexit(void (i8*)* bitcast (void (%"class.std::ios_base::Init"*)* @_ZNSt8ios_base4InitD1Ev to void (i8*)*), i8* getelementptr inbounds (%"class.std::ios_base::Init", %"class.std::ios_base::Init"* @_ZStL8__ioinit, i32 0, i32 0), i8* @__dso_handle) #3
  ret void
}

declare dso_local void @_ZNSt8ios_base4InitC1Ev(%"class.std::ios_base::Init"*) unnamed_addr #1

; Function Attrs: nounwind
declare dso_local void @_ZNSt8ios_base4InitD1Ev(%"class.std::ios_base::Init"*) unnamed_addr #2

; Function Attrs: nounwind
declare dso_local i32 @__cxa_atexit(void (i8*)*, i8*, i8*) #3

; Function Attrs: noinline norecurse uwtable
define dso_local i32 @main() #4 {
  %1 = alloca i32, align 4
  %2 = alloca i32, align 4
  %3 = alloca i32, align 4
  %4 = alloca i32, align 4
  %5 = alloca i32, align 4
  store i32 0, i32* %1, align 4
  store i32 12, i32* %3, align 4
  store i32 1, i32* %4, align 4
  %6 = call dereferenceable(280) %"class.std::basic_istream"* @_ZNSirsERi(%"class.std::basic_istream"* @_ZSt3cin, i32* dereferenceable(4) %2)
  br label %7

7:                                                ; preds = %62, %0
  %8 = load i32, i32* %3, align 4
  %9 = srem i32 %8, 7
  store i32 %9, i32* %5, align 4
  %10 = load i32, i32* %5, align 4
  %11 = load i32, i32* %2, align 4
  %12 = add nsw i32 %10, %11
  %13 = icmp eq i32 %12, 5
  br i1 %13, label %19, label %14

14:                                               ; preds = %7
  %15 = load i32, i32* %5, align 4
  %16 = load i32, i32* %2, align 4
  %17 = add nsw i32 %15, %16
  %18 = icmp eq i32 %17, 12
  br i1 %18, label %19, label %23

19:                                               ; preds = %14, %7
  %20 = load i32, i32* %4, align 4
  %21 = call dereferenceable(272) %"class.std::basic_ostream"* @_ZNSolsEi(%"class.std::basic_ostream"* @_ZSt4cout, i32 %20)
  %22 = call dereferenceable(272) %"class.std::basic_ostream"* @_ZNSolsEPFRSoS_E(%"class.std::basic_ostream"* %21, %"class.std::basic_ostream"* (%"class.std::basic_ostream"*)* @_ZSt4endlIcSt11char_traitsIcEERSt13basic_ostreamIT_T0_ES6_)
  br label %23

23:                                               ; preds = %19, %14
  %24 = load i32, i32* %4, align 4
  switch i32 %24, label %58 [
    i32 1, label %25
    i32 2, label %28
    i32 3, label %31
    i32 4, label %34
    i32 5, label %37
    i32 6, label %40
    i32 7, label %43
    i32 8, label %46
    i32 9, label %49
    i32 10, label %52
    i32 11, label %55
  ]

25:                                               ; preds = %23
  %26 = load i32, i32* %3, align 4
  %27 = add nsw i32 %26, 31
  store i32 %27, i32* %3, align 4
  br label %59

28:                                               ; preds = %23
  %29 = load i32, i32* %3, align 4
  %30 = add nsw i32 %29, 28
  store i32 %30, i32* %3, align 4
  br label %59

31:                                               ; preds = %23
  %32 = load i32, i32* %3, align 4
  %33 = add nsw i32 %32, 31
  store i32 %33, i32* %3, align 4
  br label %59

34:                                               ; preds = %23
  %35 = load i32, i32* %3, align 4
  %36 = add nsw i32 %35, 30
  store i32 %36, i32* %3, align 4
  br label %59

37:                                               ; preds = %23
  %38 = load i32, i32* %3, align 4
  %39 = add nsw i32 %38, 31
  store i32 %39, i32* %3, align 4
  br label %59

40:                                               ; preds = %23
  %41 = load i32, i32* %3, align 4
  %42 = add nsw i32 %41, 30
  store i32 %42, i32* %3, align 4
  br label %59

43:                                               ; preds = %23
  %44 = load i32, i32* %3, align 4
  %45 = add nsw i32 %44, 31
  store i32 %45, i32* %3, align 4
  br label %59

46:                                               ; preds = %23
  %47 = load i32, i32* %3, align 4
  %48 = add nsw i32 %47, 31
  store i32 %48, i32* %3, align 4
  br label %59

49:                                               ; preds = %23
  %50 = load i32, i32* %3, align 4
  %51 = add nsw i32 %50, 30
  store i32 %51, i32* %3, align 4
  br label %59

52:                                               ; preds = %23
  %53 = load i32, i32* %3, align 4
  %54 = add nsw i32 %53, 31
  store i32 %54, i32* %3, align 4
  br label %59

55:                                               ; preds = %23
  %56 = load i32, i32* %3, align 4
  %57 = add nsw i32 %56, 30
  store i32 %57, i32* %3, align 4
  br label %59

58:                                               ; preds = %23
  br label %59

59:                                               ; preds = %58, %55, %52, %49, %46, %43, %40, %37, %34, %31, %28, %25
  %60 = load i32, i32* %4, align 4
  %61 = add nsw i32 %60, 1
  store i32 %61, i32* %4, align 4
  br label %62

62:                                               ; preds = %59
  %63 = load i32, i32* %4, align 4
  %64 = icmp slt i32 %63, 13
  br i1 %64, label %7, label %65

65:                                               ; preds = %62
  ret i32 0
}

declare dso_local dereferenceable(280) %"class.std::basic_istream"* @_ZNSirsERi(%"class.std::basic_istream"*, i32* dereferenceable(4)) #1

declare dso_local dereferenceable(272) %"class.std::basic_ostream"* @_ZNSolsEi(%"class.std::basic_ostream"*, i32) #1

declare dso_local dereferenceable(272) %"class.std::basic_ostream"* @_ZNSolsEPFRSoS_E(%"class.std::basic_ostream"*, %"class.std::basic_ostream"* (%"class.std::basic_ostream"*)*) #1

declare dso_local dereferenceable(272) %"class.std::basic_ostream"* @_ZSt4endlIcSt11char_traitsIcEERSt13basic_ostreamIT_T0_ES6_(%"class.std::basic_ostream"* dereferenceable(272)) #1

; Function Attrs: noinline uwtable
define internal void @_GLOBAL__sub_I_1952.cpp() #0 section ".text.startup" {
  call void @__cxx_global_var_init()
  ret void
}


!llvm.module.flags = !{!0}
!llvm.ident = !{!1}

!0 = !{i32 1, !"wchar_size", i32 4}
!1 = !{!"clang version 10.0.0-4ubuntu1 "}
